target datalayout = "e-m:e-p270:32:32-p271:32:32-p272:64:64-i64:64-i128:128-f80:128-n8:16:32:64-S128"
target triple = "x86_64-pc-linux-gnu"

%struct.v3_ext_method = type { i32, i32, ptr, ptr, ptr, ptr, ptr, ptr, ptr, ptr, ptr, ptr, ptr, ptr }

@.str.1 = private unnamed_addr constant [1 x i8] zeroinitializer, align 1
@.str.6 = private unnamed_addr constant [6 x i8] c"%*s%s\00", align 1
@.str.7 = private unnamed_addr constant [32 x i8] c"../openssl/crypto/x509/v3_prn.c\00", align 1
@.str.11 = private unnamed_addr constant [17 x i8] c"%*s<Parse Error>\00", align 1
@.str.12 = private unnamed_addr constant [19 x i8] c"%*s<Not Supported>\00", align 1

; Function Attrs: inlinehint nounwind uwtable
define internal ptr @ossl_check_CONF_VALUE_freefunc_type(ptr noundef %0) #3 {
  %2 = alloca ptr, align 8
  store ptr %0, ptr %2, align 8, !tbaa !12
  %3 = load ptr, ptr %2, align 8, !tbaa !12
  ret ptr %3
}

; Function Attrs: inlinehint nounwind uwtable
define internal ptr @ossl_check_CONF_VALUE_sk_type(ptr noundef %0) #3 {
  %2 = alloca ptr, align 8
  store ptr %0, ptr %2, align 8, !tbaa !8
  %3 = load ptr, ptr %2, align 8, !tbaa !8
  ret ptr %3
}

; Function Attrs: nounwind uwtable
define internal i32 @unknown_ext_print(ptr noundef %0, ptr noundef %1, i32 noundef %2, i64 noundef %3, i32 noundef %4, i32 noundef %5) #0 {
  %7 = alloca i32, align 4
  %8 = alloca ptr, align 8
  %9 = alloca ptr, align 8
  %10 = alloca i32, align 4
  %11 = alloca i64, align 8
  %12 = alloca i32, align 4
  %13 = alloca i32, align 4
  store ptr %0, ptr %8, align 8, !tbaa !3
  store ptr %1, ptr %9, align 8, !tbaa !23
  store i32 %2, ptr %10, align 4, !tbaa !10
  store i64 %3, ptr %11, align 8, !tbaa !21
  store i32 %4, ptr %12, align 4, !tbaa !10
  store i32 %5, ptr %13, align 4, !tbaa !10
  %14 = load i64, ptr %11, align 8, !tbaa !21
  %15 = and i64 %14, 983040
  switch i64 %15, label %42 [
    i64 0, label %16
    i64 65536, label %17
    i64 131072, label %29
    i64 196608, label %36
  ]

16:                                               ; preds = %6
  store i32 0, ptr %7, align 4
  br label %43

17:                                               ; preds = %6
  %18 = load i32, ptr %13, align 4, !tbaa !10
  %19 = icmp ne i32 %18, 0
  br i1 %19, label %20, label %24

20:                                               ; preds = %17
  %21 = load ptr, ptr %8, align 8, !tbaa !3
  %22 = load i32, ptr %12, align 4, !tbaa !10
  %23 = call i32 (ptr, ptr, ...) @BIO_printf(ptr noundef %21, ptr noundef @.str.11, i32 noundef %22, ptr noundef @.str.1)
  br label %28

24:                                               ; preds = %17
  %25 = load ptr, ptr %8, align 8, !tbaa !3
  %26 = load i32, ptr %12, align 4, !tbaa !10
  %27 = call i32 (ptr, ptr, ...) @BIO_printf(ptr noundef %25, ptr noundef @.str.12, i32 noundef %26, ptr noundef @.str.1)
  br label %28

28:                                               ; preds = %24, %20
  store i32 1, ptr %7, align 4
  br label %43

29:                                               ; preds = %6
  %30 = load ptr, ptr %8, align 8, !tbaa !3
  %31 = load ptr, ptr %9, align 8, !tbaa !23
  %32 = load i32, ptr %10, align 4, !tbaa !10
  %33 = sext i32 %32 to i64
  %34 = load i32, ptr %12, align 4, !tbaa !10
  %35 = call i32 @ASN1_parse_dump(ptr noundef %30, ptr noundef %31, i64 noundef %33, i32 noundef %34, i32 noundef -1)
  store i32 %35, ptr %7, align 4
  br label %43

36:                                               ; preds = %6
  %37 = load ptr, ptr %8, align 8, !tbaa !3
  %38 = load ptr, ptr %9, align 8, !tbaa !23
  %39 = load i32, ptr %10, align 4, !tbaa !10
  %40 = load i32, ptr %12, align 4, !tbaa !10
  %41 = call i32 @BIO_dump_indent(ptr noundef %37, ptr noundef %38, i32 noundef %39, i32 noundef %40)
  store i32 %41, ptr %7, align 4
  br label %43

42:                                               ; preds = %6
  store i32 1, ptr %7, align 4
  br label %43

43:                                               ; preds = %42, %36, %29, %28, %16
  %44 = load i32, ptr %7, align 4
  ret i32 %44
}

; Function Attrs: nounwind uwtable
define i32 @X509V3_EXT_print(ptr noundef %0, ptr noundef %1, i64 noundef %2, i32 noundef %3) #0 {
  %5 = alloca i32, align 4
  %6 = alloca ptr, align 8
  %7 = alloca ptr, align 8
  %8 = alloca i64, align 8
  %9 = alloca i32, align 4
  %10 = alloca ptr, align 8
  %11 = alloca ptr, align 8
  %12 = alloca ptr, align 8
  %13 = alloca ptr, align 8
  %14 = alloca i32, align 4
  %15 = alloca ptr, align 8
  %16 = alloca ptr, align 8
  %17 = alloca i32, align 4
  %18 = alloca i32, align 4
  store ptr %0, ptr %6, align 8, !tbaa !3
  store ptr %1, ptr %7, align 8, !tbaa !19
  store i64 %2, ptr %8, align 8, !tbaa !21
  store i32 %3, ptr %9, align 4, !tbaa !10
  call void @llvm.lifetime.start.p0(i64 8, ptr %10) #4
  store ptr null, ptr %10, align 8, !tbaa !12
  call void @llvm.lifetime.start.p0(i64 8, ptr %11) #4
  store ptr null, ptr %11, align 8, !tbaa !23
  call void @llvm.lifetime.start.p0(i64 8, ptr %12) #4
  call void @llvm.lifetime.start.p0(i64 8, ptr %13) #4
  call void @llvm.lifetime.start.p0(i64 4, ptr %14) #4
  call void @llvm.lifetime.start.p0(i64 8, ptr %15) #4
  call void @llvm.lifetime.start.p0(i64 8, ptr %16) #4
  store ptr null, ptr %16, align 8, !tbaa !8
  call void @llvm.lifetime.start.p0(i64 4, ptr %17) #4
  store i32 1, ptr %17, align 4, !tbaa !10
  %19 = load ptr, ptr %7, align 8, !tbaa !19
  %20 = call ptr @X509_EXTENSION_get_data(ptr noundef %19)
  store ptr %20, ptr %12, align 8, !tbaa !24
  %21 = load ptr, ptr %12, align 8, !tbaa !24
  %22 = call ptr @ASN1_STRING_get0_data(ptr noundef %21)
  store ptr %22, ptr %13, align 8, !tbaa !23
  %23 = load ptr, ptr %12, align 8, !tbaa !24
  %24 = call i32 @ASN1_STRING_length(ptr noundef %23)
  store i32 %24, ptr %14, align 4, !tbaa !10
  %25 = load ptr, ptr %7, align 8, !tbaa !19
  %26 = call ptr @X509V3_EXT_get(ptr noundef %25)
  store ptr %26, ptr %15, align 8, !tbaa !26
  %27 = icmp eq ptr %26, null
  br i1 %27, label %28, label %35

28:                                               ; preds = %4
  %29 = load ptr, ptr %6, align 8, !tbaa !3
  %30 = load ptr, ptr %13, align 8, !tbaa !23
  %31 = load i32, ptr %14, align 4, !tbaa !10
  %32 = load i64, ptr %8, align 8, !tbaa !21
  %33 = load i32, ptr %9, align 4, !tbaa !10
  %34 = call i32 @unknown_ext_print(ptr noundef %29, ptr noundef %30, i32 noundef %31, i64 noundef %32, i32 noundef %33, i32 noundef 0)
  store i32 %34, ptr %5, align 4
  store i32 1, ptr %18, align 4
  br label %149

35:                                               ; preds = %4
  %36 = load ptr, ptr %15, align 8, !tbaa !26
  %37 = getelementptr inbounds nuw %struct.v3_ext_method, ptr %36, i32 0, i32 2
  %38 = load ptr, ptr %37, align 8, !tbaa !28
  %39 = icmp ne ptr %38, null
  br i1 %39, label %40, label %48

40:                                               ; preds = %35
  %41 = load i32, ptr %14, align 4, !tbaa !10
  %42 = sext i32 %41 to i64
  %43 = load ptr, ptr %15, align 8, !tbaa !26
  %44 = getelementptr inbounds nuw %struct.v3_ext_method, ptr %43, i32 0, i32 2
  %45 = load ptr, ptr %44, align 8, !tbaa !28
  %46 = call ptr %45()
  %47 = call ptr @ASN1_item_d2i(ptr noundef null, ptr noundef %13, i64 noundef %42, ptr noundef %46)
  store ptr %47, ptr %10, align 8, !tbaa !12
  br label %55

48:                                               ; preds = %35
  %49 = load ptr, ptr %15, align 8, !tbaa !26
  %50 = getelementptr inbounds nuw %struct.v3_ext_method, ptr %49, i32 0, i32 5
  %51 = load ptr, ptr %50, align 8, !tbaa !30
  %52 = load i32, ptr %14, align 4, !tbaa !10
  %53 = sext i32 %52 to i64
  %54 = call ptr %51(ptr noundef null, ptr noundef %13, i64 noundef %53)
  store ptr %54, ptr %10, align 8, !tbaa !12
  br label %55

55:                                               ; preds = %48, %40
  %56 = load ptr, ptr %10, align 8, !tbaa !12
  %57 = icmp ne ptr %56, null
  br i1 %57, label %65, label %58

58:                                               ; preds = %55
  %59 = load ptr, ptr %6, align 8, !tbaa !3
  %60 = load ptr, ptr %13, align 8, !tbaa !23
  %61 = load i32, ptr %14, align 4, !tbaa !10
  %62 = load i64, ptr %8, align 8, !tbaa !21
  %63 = load i32, ptr %9, align 4, !tbaa !10
  %64 = call i32 @unknown_ext_print(ptr noundef %59, ptr noundef %60, i32 noundef %61, i64 noundef %62, i32 noundef %63, i32 noundef 1)
  store i32 %64, ptr %5, align 4
  store i32 1, ptr %18, align 4
  br label %149

65:                                               ; preds = %55
  %66 = load ptr, ptr %15, align 8, !tbaa !26
  %67 = getelementptr inbounds nuw %struct.v3_ext_method, ptr %66, i32 0, i32 7
  %68 = load ptr, ptr %67, align 8, !tbaa !31
  %69 = icmp ne ptr %68, null
  br i1 %69, label %70, label %84

70:                                               ; preds = %65
  %71 = load ptr, ptr %15, align 8, !tbaa !26
  %72 = getelementptr inbounds nuw %struct.v3_ext_method, ptr %71, i32 0, i32 7
  %73 = load ptr, ptr %72, align 8, !tbaa !31
  %74 = load ptr, ptr %15, align 8, !tbaa !26
  %75 = load ptr, ptr %10, align 8, !tbaa !12
  %76 = call ptr %73(ptr noundef %74, ptr noundef %75)
  store ptr %76, ptr %11, align 8, !tbaa !23
  %77 = icmp eq ptr %76, null
  br i1 %77, label %78, label %79

78:                                               ; preds = %70
  store i32 0, ptr %17, align 4, !tbaa !10
  br label %127

79:                                               ; preds = %70
  %80 = load ptr, ptr %6, align 8, !tbaa !3
  %81 = load i32, ptr %9, align 4, !tbaa !10
  %82 = load ptr, ptr %11, align 8, !tbaa !23
  %83 = call i32 (ptr, ptr, ...) @BIO_printf(ptr noundef %80, ptr noundef @.str.6, i32 noundef %81, ptr noundef @.str.1, ptr noundef %82)
  br label %126

84:                                               ; preds = %65
  %85 = load ptr, ptr %15, align 8, !tbaa !26
  %86 = getelementptr inbounds nuw %struct.v3_ext_method, ptr %85, i32 0, i32 9
  %87 = load ptr, ptr %86, align 8, !tbaa !32
  %88 = icmp ne ptr %87, null
  br i1 %88, label %89, label %106

89:                                               ; preds = %84
  %90 = load ptr, ptr %15, align 8, !tbaa !26
  %91 = getelementptr inbounds nuw %struct.v3_ext_method, ptr %90, i32 0, i32 9
  %92 = load ptr, ptr %91, align 8, !tbaa !32
  %93 = load ptr, ptr %15, align 8, !tbaa !26
  %94 = load ptr, ptr %10, align 8, !tbaa !12
  %95 = call ptr %92(ptr noundef %93, ptr noundef %94, ptr noundef null)
  store ptr %95, ptr %16, align 8, !tbaa !8
  %96 = icmp eq ptr %95, null
  br i1 %96, label %97, label %98

97:                                               ; preds = %89
  store i32 0, ptr %17, align 4, !tbaa !10
  br label %127

98:                                               ; preds = %89
  %99 = load ptr, ptr %6, align 8, !tbaa !3
  %100 = load ptr, ptr %16, align 8, !tbaa !8
  %101 = load i32, ptr %9, align 4, !tbaa !10
  %102 = load ptr, ptr %15, align 8, !tbaa !26
  %103 = getelementptr inbounds nuw %struct.v3_ext_method, ptr %102, i32 0, i32 1
  %104 = load i32, ptr %103, align 4, !tbaa !33
  %105 = and i32 %104, 4
  call void @X509V3_EXT_val_prn(ptr noundef %99, ptr noundef %100, i32 noundef %101, i32 noundef %105)
  br label %125

106:                                              ; preds = %84
  %107 = load ptr, ptr %15, align 8, !tbaa !26
  %108 = getelementptr inbounds nuw %struct.v3_ext_method, ptr %107, i32 0, i32 11
  %109 = load ptr, ptr %108, align 8, !tbaa !34
  %110 = icmp ne ptr %109, null
  br i1 %110, label %111, label %123

111:                                              ; preds = %106
  %112 = load ptr, ptr %15, align 8, !tbaa !26
  %113 = getelementptr inbounds nuw %struct.v3_ext_method, ptr %112, i32 0, i32 11
  %114 = load ptr, ptr %113, align 8, !tbaa !34
  %115 = load ptr, ptr %15, align 8, !tbaa !26
  %116 = load ptr, ptr %10, align 8, !tbaa !12
  %117 = load ptr, ptr %6, align 8, !tbaa !3
  %118 = load i32, ptr %9, align 4, !tbaa !10
  %119 = call i32 %114(ptr noundef %115, ptr noundef %116, ptr noundef %117, i32 noundef %118)
  %120 = icmp ne i32 %119, 0
  br i1 %120, label %122, label %121

121:                                              ; preds = %111
  store i32 0, ptr %17, align 4, !tbaa !10
  br label %122

122:                                              ; preds = %121, %111
  br label %124

123:                                              ; preds = %106
  store i32 0, ptr %17, align 4, !tbaa !10
  br label %124

124:                                              ; preds = %123, %122
  br label %125

125:                                              ; preds = %124, %98
  br label %126

126:                                              ; preds = %125, %79
  br label %127

127:                                              ; preds = %126, %97, %78
  %128 = load ptr, ptr %16, align 8, !tbaa !8
  %129 = call ptr @ossl_check_CONF_VALUE_sk_type(ptr noundef %128)
  %130 = call ptr @ossl_check_CONF_VALUE_freefunc_type(ptr noundef @X509V3_conf_free)
  call void @OPENSSL_sk_pop_free(ptr noundef %129, ptr noundef %130)
  %131 = load ptr, ptr %11, align 8, !tbaa !23
  call void @CRYPTO_free(ptr noundef %131, ptr noundef @.str.7, i32 noundef 131)
  %132 = load ptr, ptr %15, align 8, !tbaa !26
  %133 = getelementptr inbounds nuw %struct.v3_ext_method, ptr %132, i32 0, i32 2
  %134 = load ptr, ptr %133, align 8, !tbaa !28
  %135 = icmp ne ptr %134, null
  br i1 %135, label %136, label %142

136:                                              ; preds = %127
  %137 = load ptr, ptr %10, align 8, !tbaa !12
  %138 = load ptr, ptr %15, align 8, !tbaa !26
  %139 = getelementptr inbounds nuw %struct.v3_ext_method, ptr %138, i32 0, i32 2
  %140 = load ptr, ptr %139, align 8, !tbaa !28
  %141 = call ptr %140()
  call void @ASN1_item_free(ptr noundef %137, ptr noundef %141)
  br label %147

142:                                              ; preds = %127
  %143 = load ptr, ptr %15, align 8, !tbaa !26
  %144 = getelementptr inbounds nuw %struct.v3_ext_method, ptr %143, i32 0, i32 4
  %145 = load ptr, ptr %144, align 8, !tbaa !35
  %146 = load ptr, ptr %10, align 8, !tbaa !12
  call void %145(ptr noundef %146)
  br label %147

147:                                              ; preds = %142, %136
  %148 = load i32, ptr %17, align 4, !tbaa !10
  store i32 %148, ptr %5, align 4
  store i32 1, ptr %18, align 4
  br label %149

149:                                              ; preds = %147, %58, %28
  call void @llvm.lifetime.end.p0(i64 4, ptr %17) #4
  call void @llvm.lifetime.end.p0(i64 8, ptr %16) #4
  call void @llvm.lifetime.end.p0(i64 8, ptr %15) #4
  call void @llvm.lifetime.end.p0(i64 4, ptr %14) #4
  call void @llvm.lifetime.end.p0(i64 8, ptr %13) #4
  call void @llvm.lifetime.end.p0(i64 8, ptr %12) #4
  call void @llvm.lifetime.end.p0(i64 8, ptr %11) #4
  call void @llvm.lifetime.end.p0(i64 8, ptr %10) #4
  %150 = load i32, ptr %5, align 4
  ret i32 %150
}