; Function Attrs: nounwind uwtable
define i32 @X509V3_EXT_print(ptr noundef %0, ptr noundef %1, i64 noundef %2, i32 noundef %3) local_unnamed_addr #0 {
  %5 = alloca ptr, align 8
  call void @llvm.lifetime.start.p0(i64 8, ptr nonnull %5) #3
  %6 = tail call ptr @X509_EXTENSION_get_data(ptr noundef %1) #3
  %7 = tail call ptr @ASN1_STRING_get0_data(ptr noundef %6) #3
  store ptr %7, ptr %5, align 8, !tbaa !12
  %8 = tail call i32 @ASN1_STRING_length(ptr noundef %6) #3
  %9 = tail call ptr @X509V3_EXT_get(ptr noundef %1) #3
  %10 = icmp eq ptr %9, null
  br i1 %10, label %11, label %22

11:                                               ; preds = %4
  %12 = lshr i64 %2, 16
  %13 = and i64 %12, 15
  switch i64 %13, label %21 [
    i64 0, label %unknown_ext_print.exit
    i64 1, label %14
    i64 2, label %16
    i64 3, label %19
  ]

14:                                               ; preds = %11
  %15 = tail call i32 (ptr, ptr, ...) @BIO_printf(ptr noundef %0, ptr noundef nonnull @.str.12, i32 noundef %3, ptr noundef nonnull @.str.1) #3
  br label %unknown_ext_print.exit

16:                                               ; preds = %11
  %17 = sext i32 %8 to i64
  %18 = tail call i32 @ASN1_parse_dump(ptr noundef %0, ptr noundef %7, i64 noundef %17, i32 noundef %3, i32 noundef -1) #3
  br label %unknown_ext_print.exit

19:                                               ; preds = %11
  %20 = tail call i32 @BIO_dump_indent(ptr noundef %0, ptr noundef %7, i32 noundef %8, i32 noundef %3) #3
  br label %unknown_ext_print.exit

21:                                               ; preds = %11
  br label %unknown_ext_print.exit

22:                                               ; preds = %4
  %23 = getelementptr inbounds nuw i8, ptr %9, i64 8
  %24 = load ptr, ptr %23, align 8, !tbaa !13
  %.not = icmp eq ptr %24, null
  br i1 %.not, label %29, label %25

25:                                               ; preds = %22
  %26 = sext i32 %8 to i64
  %27 = tail call ptr %24() #3
  %28 = call ptr @ASN1_item_d2i(ptr noundef null, ptr noundef nonnull %5, i64 noundef %26, ptr noundef %27) #3
  br label %34

29:                                               ; preds = %22
  %30 = getelementptr inbounds nuw i8, ptr %9, i64 32
  %31 = load ptr, ptr %30, align 8, !tbaa !16
  %32 = sext i32 %8 to i64
  %33 = call ptr %31(ptr noundef null, ptr noundef nonnull %5, i64 noundef %32) #3
  br label %34

34:                                               ; preds = %29, %25
  %.049 = phi ptr [ %28, %25 ], [ %33, %29 ]
  %.not60 = icmp eq ptr %.049, null
  br i1 %.not60, label %35, label %47

35:                                               ; preds = %34
  %36 = load ptr, ptr %5, align 8, !tbaa !12
  %37 = lshr i64 %2, 16
  %38 = and i64 %37, 15
  switch i64 %38, label %46 [
    i64 0, label %unknown_ext_print.exit
    i64 1, label %39
    i64 2, label %41
    i64 3, label %44
  ]

39:                                               ; preds = %35
  %40 = call i32 (ptr, ptr, ...) @BIO_printf(ptr noundef %0, ptr noundef nonnull @.str.11, i32 noundef %3, ptr noundef nonnull @.str.1) #3
  br label %unknown_ext_print.exit

41:                                               ; preds = %35
  %42 = sext i32 %8 to i64
  %43 = call i32 @ASN1_parse_dump(ptr noundef %0, ptr noundef %36, i64 noundef %42, i32 noundef %3, i32 noundef -1) #3
  br label %unknown_ext_print.exit

44:                                               ; preds = %35
  %45 = call i32 @BIO_dump_indent(ptr noundef %0, ptr noundef %36, i32 noundef %8, i32 noundef %3) #3
  br label %unknown_ext_print.exit

46:                                               ; preds = %35
  br label %unknown_ext_print.exit

47:                                               ; preds = %34
  %48 = getelementptr inbounds nuw i8, ptr %9, i64 48
  %49 = load ptr, ptr %48, align 8, !tbaa !17
  %.not61 = icmp eq ptr %49, null
  br i1 %.not61, label %55, label %50

50:                                               ; preds = %47
  %51 = call ptr %49(ptr noundef nonnull %9, ptr noundef nonnull %.049) #3
  %52 = icmp eq ptr %51, null
  br i1 %52, label %70, label %53

53:                                               ; preds = %50
  %54 = call i32 (ptr, ptr, ...) @BIO_printf(ptr noundef %0, ptr noundef nonnull @.str.6, i32 noundef %3, ptr noundef nonnull @.str.1, ptr noundef nonnull %51) #3
  br label %70

55:                                               ; preds = %47
  %56 = getelementptr inbounds nuw i8, ptr %9, i64 64
  %57 = load ptr, ptr %56, align 8, !tbaa !18
  %.not62 = icmp eq ptr %57, null
  br i1 %.not62, label %65, label %58

58:                                               ; preds = %55
  %59 = call ptr %57(ptr noundef nonnull %9, ptr noundef nonnull %.049, ptr noundef null) #3
  %60 = icmp eq ptr %59, null
  br i1 %60, label %70, label %61

61:                                               ; preds = %58
  %62 = getelementptr inbounds nuw i8, ptr %9, i64 4
  %63 = load i32, ptr %62, align 4, !tbaa !19
  %64 = and i32 %63, 4
  call void @X509V3_EXT_val_prn(ptr noundef %0, ptr noundef nonnull %59, i32 noundef %3, i32 noundef %64)
  br label %70

65:                                               ; preds = %55
  %66 = getelementptr inbounds nuw i8, ptr %9, i64 80
  %67 = load ptr, ptr %66, align 8, !tbaa !20
  %.not63 = icmp eq ptr %67, null
  br i1 %.not63, label %70, label %68

68:                                               ; preds = %65
  %69 = call i32 %67(ptr noundef nonnull %9, ptr noundef nonnull %.049, ptr noundef %0, i32 noundef %3) #3
  %.not64 = icmp ne i32 %69, 0
  %spec.select = zext i1 %.not64 to i32
  br label %70

70:                                               ; preds = %68, %65, %58, %50, %53, %61
  %.050 = phi ptr [ %51, %53 ], [ null, %61 ], [ null, %50 ], [ null, %58 ], [ null, %68 ], [ null, %65 ]
  %.047 = phi ptr [ null, %53 ], [ %59, %61 ], [ null, %50 ], [ null, %58 ], [ null, %68 ], [ null, %65 ]
  %.0 = phi i32 [ 1, %53 ], [ 1, %61 ], [ 0, %50 ], [ 0, %58 ], [ %spec.select, %68 ], [ 0, %65 ]
  call void @OPENSSL_sk_pop_free(ptr noundef %.047, ptr noundef nonnull @X509V3_conf_free) #3
  call void @CRYPTO_free(ptr noundef %.050, ptr noundef nonnull @.str.7, i32 noundef 131) #3
  %71 = load ptr, ptr %23, align 8, !tbaa !13
  %.not65 = icmp eq ptr %71, null
  br i1 %.not65, label %74, label %72

72:                                               ; preds = %70
  %73 = call ptr %71() #3
  call void @ASN1_item_free(ptr noundef nonnull %.049, ptr noundef %73) #3
  br label %unknown_ext_print.exit

74:                                               ; preds = %70
  %75 = getelementptr inbounds nuw i8, ptr %9, i64 24
  %76 = load ptr, ptr %75, align 8, !tbaa !21
  call void %76(ptr noundef nonnull %.049) #3
  br label %unknown_ext_print.exit

unknown_ext_print.exit:                           ; preds = %46, %44, %41, %39, %35, %21, %19, %16, %14, %11, %72, %74
  %.048 = phi i32 [ %.0, %74 ], [ %.0, %72 ], [ 1, %21 ], [ %20, %19 ], [ %18, %16 ], [ 0, %11 ], [ 1, %14 ], [ 1, %46 ], [ %45, %44 ], [ %43, %41 ], [ 0, %35 ], [ 1, %39 ]
  call void @llvm.lifetime.end.p0(i64 8, ptr nonnull %5) #3
  ret i32 %.048
}